; Function Attrs: mustprogress nofree norecurse nosync nounwind willreturn memory(argmem: readwrite, inaccessiblemem: readwrite) uwtable
define void @_ZThn16_NK6Handle12boundingRectEv(ptr dead_on_unwind noalias nocapture writable writeonly sret(%class.QRectF) align 8 %0, ptr nocapture noundef readonly %1) unnamed_addr #9 align 2 {
  tail call void @llvm.experimental.noalias.scope.decl(metadata !5)
  %3 = getelementptr inbounds i8, ptr %1, i64 32
  %4 = load i32, ptr %3, align 8, !noalias !5
  %5 = sub nsw i32 0, %4
  %6 = sitofp i32 %5 to double
  %7 = fmul double %6, 5.000000e-01
  %8 = sitofp i32 %4 to double
  store double %7, ptr %0, align 8, !alias.scope !5
  %9 = getelementptr inbounds i8, ptr %0, i64 8
  store double %7, ptr %9, align 8, !alias.scope !5
  %10 = getelementptr inbounds i8, ptr %0, i64 16
  store double %8, ptr %10, align 8, !alias.scope !5
  %11 = getelementptr inbounds i8, ptr %0, i64 24
  store double %8, ptr %11, align 8, !alias.scope !5
  ret void
}